; Function Attrs: mustprogress uwtable
define i64 @_ZNK8QuantLib16SubPeriodsCoupon10fixingDateERKNS_4DateE(ptr nocapture noundef nonnull readonly align 8 dereferenceable(264) %this, ptr noundef nonnull align 8 dereferenceable(8) %valueDate) local_unnamed_addr #8 align 2 personality ptr @__gxx_personality_v0 {
entry:
  %ref.tmp = alloca %"class.QuantLib::Calendar", align 8
  call void @llvm.lifetime.start.p0(i64 16, ptr nonnull %ref.tmp) #30
  %index_ = getelementptr inbounds nuw i8, ptr %this, i64 88
  %0 = load ptr, ptr %index_, align 8, !tbaa !52
  %cmp.not.i = icmp eq ptr %0, null
  br i1 %cmp.not.i, label %cond.false.i, label %_ZNK5boost10shared_ptrIN8QuantLib17InterestRateIndexEEptEv.exit, !prof !84

cond.false.i:                                     ; preds = %entry
  tail call void @_ZN5boost16assertion_failedEPKcS1_S1_l(ptr noundef nonnull @.str.29, ptr noundef nonnull @__PRETTY_FUNCTION__._ZNK5boost10shared_ptrIN8QuantLib17InterestRateIndexEEptEv, ptr noundef nonnull @.str.30, i64 noundef 784)
  %.pre.i = load ptr, ptr %index_, align 8, !tbaa !52
  br label %_ZNK5boost10shared_ptrIN8QuantLib17InterestRateIndexEEptEv.exit

_ZNK5boost10shared_ptrIN8QuantLib17InterestRateIndexEEptEv.exit: ; preds = %entry, %cond.false.i
  %1 = phi ptr [ %0, %entry ], [ %.pre.i, %cond.false.i ]
  %vtable = load ptr, ptr %1, align 8, !tbaa !33
  %vfn = getelementptr inbounds i8, ptr %vtable, i64 24
  %2 = load ptr, ptr %vfn, align 8
  call void %2(ptr dead_on_unwind nonnull writable sret(%"class.QuantLib::Calendar") align 8 %ref.tmp, ptr noundef nonnull align 8 dereferenceable(240) %1)
  %fixingDays_ = getelementptr inbounds nuw i8, ptr %this, i64 120
  %3 = load i32, ptr %fixingDays_, align 8, !tbaa !104
  %sub = sub nsw i32 0, %3
  %call2 = invoke i64 @_ZNK8QuantLib8Calendar7advanceERKNS_4DateEiNS_8TimeUnitENS_21BusinessDayConventionEb(ptr noundef nonnull align 8 dereferenceable(16) %ref.tmp, ptr noundef nonnull align 8 dereferenceable(8) %valueDate, i32 noundef %sub, i32 noundef 0, i32 noundef 0, i1 noundef zeroext false)
          to label %invoke.cont unwind label %lpad

invoke.cont:                                      ; preds = %_ZNK5boost10shared_ptrIN8QuantLib17InterestRateIndexEEptEv.exit
  %pn.i.i = getelementptr inbounds nuw i8, ptr %ref.tmp, i64 8
  %4 = load ptr, ptr %pn.i.i, align 8, !tbaa !42
  %cmp.not.i.i.i = icmp eq ptr %4, null
  br i1 %cmp.not.i.i.i, label %_ZN8QuantLib8CalendarD2Ev.exit, label %if.then.i.i.i

if.then.i.i.i:                                    ; preds = %invoke.cont
  %use_count_.i.i.i.i = getelementptr inbounds nuw i8, ptr %4, i64 8
  %5 = atomicrmw sub ptr %use_count_.i.i.i.i, i32 1 acq_rel, align 4
  %cmp.i.i.i.i = icmp eq i32 %5, 1
  br i1 %cmp.i.i.i.i, label %if.then.i.i.i.i, label %_ZN8QuantLib8CalendarD2Ev.exit

if.then.i.i.i.i:                                  ; preds = %if.then.i.i.i
  %vtable.i.i.i.i = load ptr, ptr %4, align 8, !tbaa !33
  %vfn.i.i.i.i = getelementptr inbounds i8, ptr %vtable.i.i.i.i, i64 16
  %6 = load ptr, ptr %vfn.i.i.i.i, align 8
  invoke void %6(ptr noundef nonnull align 8 dereferenceable(16) %4)
          to label %.noexc.i.i.i unwind label %terminate.lpad.i.i.i

.noexc.i.i.i:                                     ; preds = %if.then.i.i.i.i
  %weak_count_.i.i.i.i.i = getelementptr inbounds nuw i8, ptr %4, i64 12
  %7 = atomicrmw sub ptr %weak_count_.i.i.i.i.i, i32 1 acq_rel, align 4
  %cmp.i.i.i.i.i = icmp eq i32 %7, 1
  br i1 %cmp.i.i.i.i.i, label %if.then.i.i.i.i.i, label %_ZN8QuantLib8CalendarD2Ev.exit

if.then.i.i.i.i.i:                                ; preds = %.noexc.i.i.i
  %vtable.i.i.i.i.i = load ptr, ptr %4, align 8, !tbaa !33
  %vfn.i.i.i.i.i = getelementptr inbounds i8, ptr %vtable.i.i.i.i.i, i64 24
  %8 = load ptr, ptr %vfn.i.i.i.i.i, align 8
  invoke void %8(ptr noundef nonnull align 8 dereferenceable(16) %4)
          to label %_ZN8QuantLib8CalendarD2Ev.exit unwind label %terminate.lpad.i.i.i

terminate.lpad.i.i.i:                             ; preds = %if.then.i.i.i.i.i, %if.then.i.i.i.i
  %9 = landingpad { ptr, i32 }
          catch ptr null
  %10 = extractvalue { ptr, i32 } %9, 0
  call void @__clang_call_terminate(ptr %10) #31
  unreachable

_ZN8QuantLib8CalendarD2Ev.exit:                   ; preds = %invoke.cont, %if.then.i.i.i, %.noexc.i.i.i, %if.then.i.i.i.i.i
  call void @llvm.lifetime.end.p0(i64 16, ptr nonnull %ref.tmp) #30
  ret i64 %call2

lpad:                                             ; preds = %_ZNK5boost10shared_ptrIN8QuantLib17InterestRateIndexEEptEv.exit
  %11 = landingpad { ptr, i32 }
          cleanup
  call void @_ZN8QuantLib8CalendarD2Ev(ptr noundef nonnull align 8 dereferenceable(16) %ref.tmp) #30
  call void @llvm.lifetime.end.p0(i64 16, ptr nonnull %ref.tmp) #30
  resume { ptr, i32 } %11
}